target datalayout = "e-m:e-p270:32:32-p271:32:32-p272:64:64-i64:64-i128:128-f80:128-n8:16:32:64-S128"
target triple = "x86_64-pc-linux-gnu"

; Function Attrs: nounwind uwtable
define void @Sbc_Mult(i64 noundef %0, i64 noundef %1, ptr noundef %2) #0 {
  %4 = alloca i64, align 8
  %5 = alloca i64, align 8
  %6 = alloca ptr, align 8
  %7 = alloca i64, align 8
  %8 = alloca i64, align 8
  %9 = alloca i64, align 8
  %10 = alloca i64, align 8
  %11 = alloca i64, align 8
  %12 = alloca i64, align 8
  store i64 %0, ptr %4, align 8, !tbaa !38
  store i64 %1, ptr %5, align 8, !tbaa !38
  store ptr %2, ptr %6, align 8, !tbaa !36
  call void @llvm.lifetime.start.p0(i64 8, ptr %7) #11
  store i64 4294967295, ptr %7, align 8, !tbaa !38
  call void @llvm.lifetime.start.p0(i64 8, ptr %8) #11
  %13 = load i64, ptr %4, align 8, !tbaa !38
  %14 = load i64, ptr %7, align 8, !tbaa !38
  %15 = and i64 %13, %14
  %16 = load i64, ptr %5, align 8, !tbaa !38
  %17 = load i64, ptr %7, align 8, !tbaa !38
  %18 = and i64 %16, %17
  %19 = mul i64 %15, %18
  store i64 %19, ptr %8, align 8, !tbaa !38
  call void @llvm.lifetime.start.p0(i64 8, ptr %9) #11
  %20 = load i64, ptr %4, align 8, !tbaa !38
  %21 = load i64, ptr %7, align 8, !tbaa !38
  %22 = and i64 %20, %21
  %23 = load i64, ptr %5, align 8, !tbaa !38
  %24 = lshr i64 %23, 32
  %25 = mul i64 %22, %24
  store i64 %25, ptr %9, align 8, !tbaa !38
  call void @llvm.lifetime.start.p0(i64 8, ptr %10) #11
  %26 = load i64, ptr %4, align 8, !tbaa !38
  %27 = lshr i64 %26, 32
  %28 = load i64, ptr %5, align 8, !tbaa !38
  %29 = load i64, ptr %7, align 8, !tbaa !38
  %30 = and i64 %28, %29
  %31 = mul i64 %27, %30
  store i64 %31, ptr %10, align 8, !tbaa !38
  call void @llvm.lifetime.start.p0(i64 8, ptr %11) #11
  %32 = load i64, ptr %4, align 8, !tbaa !38
  %33 = lshr i64 %32, 32
  %34 = load i64, ptr %5, align 8, !tbaa !38
  %35 = lshr i64 %34, 32
  %36 = mul i64 %33, %35
  store i64 %36, ptr %11, align 8, !tbaa !38
  call void @llvm.lifetime.start.p0(i64 8, ptr %12) #11
  %37 = load i64, ptr %9, align 8, !tbaa !38
  %38 = load i64, ptr %7, align 8, !tbaa !38
  %39 = and i64 %37, %38
  %40 = load i64, ptr %10, align 8, !tbaa !38
  %41 = load i64, ptr %7, align 8, !tbaa !38
  %42 = and i64 %40, %41
  %43 = add i64 %39, %42
  %44 = load i64, ptr %8, align 8, !tbaa !38
  %45 = lshr i64 %44, 32
  %46 = add i64 %43, %45
  store i64 %46, ptr %12, align 8, !tbaa !38
  %47 = load i64, ptr %4, align 8, !tbaa !38
  %48 = load i64, ptr %5, align 8, !tbaa !38
  %49 = mul i64 %47, %48
  %50 = load ptr, ptr %6, align 8, !tbaa !36
  %51 = getelementptr inbounds i64, ptr %50, i64 0
  store i64 %49, ptr %51, align 8, !tbaa !38
  %52 = load i64, ptr %11, align 8, !tbaa !38
  %53 = load i64, ptr %9, align 8, !tbaa !38
  %54 = lshr i64 %53, 32
  %55 = add i64 %52, %54
  %56 = load i64, ptr %10, align 8, !tbaa !38
  %57 = lshr i64 %56, 32
  %58 = add i64 %55, %57
  %59 = load i64, ptr %12, align 8, !tbaa !38
  %60 = lshr i64 %59, 32
  %61 = add i64 %58, %60
  %62 = load ptr, ptr %6, align 8, !tbaa !36
  %63 = getelementptr inbounds i64, ptr %62, i64 1
  store i64 %61, ptr %63, align 8, !tbaa !38
  call void @llvm.lifetime.end.p0(i64 8, ptr %12) #11
  call void @llvm.lifetime.end.p0(i64 8, ptr %11) #11
  call void @llvm.lifetime.end.p0(i64 8, ptr %10) #11
  call void @llvm.lifetime.end.p0(i64 8, ptr %9) #11
  call void @llvm.lifetime.end.p0(i64 8, ptr %8) #11
  call void @llvm.lifetime.end.p0(i64 8, ptr %7) #11
  ret void
}

; Function Attrs: inlinehint nounwind uwtable
define internal i64 @Abc_Tt6Mask(i32 noundef %0) #2 {
  %2 = alloca i32, align 4
  store i32 %0, ptr %2, align 4, !tbaa !12
  %3 = load i32, ptr %2, align 4, !tbaa !12
  %4 = sub nsw i32 64, %3
  %5 = zext i32 %4 to i64
  %6 = lshr i64 -1, %5
  ret i64 %6
}

; Function Attrs: nounwind uwtable
define void @Sbc_SimMult(ptr noundef %0, ptr noundef %1, ptr noundef %2, i32 noundef %3) #0 {
  %5 = alloca ptr, align 8
  %6 = alloca ptr, align 8
  %7 = alloca ptr, align 8
  %8 = alloca i32, align 4
  %9 = alloca i64, align 8
  %10 = alloca i64, align 8
  %11 = alloca [2 x i64], align 16
  %12 = alloca i64, align 8
  %13 = alloca i32, align 4
  %14 = alloca i32, align 4
  store ptr %0, ptr %5, align 8, !tbaa !36
  store ptr %1, ptr %6, align 8, !tbaa !36
  store ptr %2, ptr %7, align 8, !tbaa !36
  store i32 %3, ptr %8, align 4, !tbaa !12
  call void @llvm.lifetime.start.p0(i64 8, ptr %9) #11
  call void @llvm.lifetime.start.p0(i64 8, ptr %10) #11
  call void @llvm.lifetime.start.p0(i64 16, ptr %11) #11
  call void @llvm.lifetime.start.p0(i64 8, ptr %12) #11
  %15 = load i32, ptr %8, align 4, !tbaa !12
  %16 = call i64 @Abc_Tt6Mask(i32 noundef %15)
  store i64 %16, ptr %12, align 8, !tbaa !38
  call void @llvm.lifetime.start.p0(i64 4, ptr %13) #11
  call void @llvm.lifetime.start.p0(i64 4, ptr %14) #11
  store i32 0, ptr %13, align 4, !tbaa !12
  br label %17

17:                                               ; preds = %38, %4
  %18 = load i32, ptr %13, align 4, !tbaa !12
  %19 = icmp slt i32 %18, 64
  br i1 %19, label %20, label %41

20:                                               ; preds = %17
  %21 = load ptr, ptr %7, align 8, !tbaa !36
  %22 = load i32, ptr %13, align 4, !tbaa !12
  %23 = add nsw i32 %22, 64
  %24 = sext i32 %23 to i64
  %25 = getelementptr inbounds i64, ptr %21, i64 %24
  store i64 0, ptr %25, align 8, !tbaa !38
  %26 = load ptr, ptr %7, align 8, !tbaa !36
  %27 = load i32, ptr %13, align 4, !tbaa !12
  %28 = sext i32 %27 to i64
  %29 = getelementptr inbounds i64, ptr %26, i64 %28
  store i64 0, ptr %29, align 8, !tbaa !38
  %30 = load ptr, ptr %6, align 8, !tbaa !36
  %31 = load i32, ptr %13, align 4, !tbaa !12
  %32 = sext i32 %31 to i64
  %33 = getelementptr inbounds i64, ptr %30, i64 %32
  store i64 0, ptr %33, align 8, !tbaa !38
  %34 = load ptr, ptr %5, align 8, !tbaa !36
  %35 = load i32, ptr %13, align 4, !tbaa !12
  %36 = sext i32 %35 to i64
  %37 = getelementptr inbounds i64, ptr %34, i64 %36
  store i64 0, ptr %37, align 8, !tbaa !38
  br label %38

38:                                               ; preds = %20
  %39 = load i32, ptr %13, align 4, !tbaa !12
  %40 = add nsw i32 %39, 1
  store i32 %40, ptr %13, align 4, !tbaa !12
  br label %17, !llvm.loop !92

41:                                               ; preds = %17
  %42 = call i32 @Gia_ManRandom(i32 noundef 1)
  store i32 0, ptr %13, align 4, !tbaa !12
  br label %43

43:                                               ; preds = %147, %41
  %44 = load i32, ptr %13, align 4, !tbaa !12
  %45 = icmp slt i32 %44, 64
  br i1 %45, label %46, label %150

46:                                               ; preds = %43
  %47 = load i32, ptr %13, align 4, !tbaa !12
  %48 = icmp ne i32 %47, 0
  br i1 %48, label %49, label %53

49:                                               ; preds = %46
  %50 = load i64, ptr %12, align 8, !tbaa !38
  %51 = call i64 @Gia_ManRandomW(i32 noundef 0)
  %52 = and i64 %50, %51
  br label %54

53:                                               ; preds = %46
  br label %54

54:                                               ; preds = %53, %49
  %55 = phi i64 [ %52, %49 ], [ 0, %53 ]
  store i64 %55, ptr %9, align 8, !tbaa !38
  %56 = load i32, ptr %13, align 4, !tbaa !12
  %57 = icmp ne i32 %56, 0
  br i1 %57, label %58, label %62

58:                                               ; preds = %54
  %59 = load i64, ptr %12, align 8, !tbaa !38
  %60 = call i64 @Gia_ManRandomW(i32 noundef 0)
  %61 = and i64 %59, %60
  br label %63

62:                                               ; preds = %54
  br label %63

63:                                               ; preds = %62, %58
  %64 = phi i64 [ %61, %58 ], [ 0, %62 ]
  store i64 %64, ptr %10, align 8, !tbaa !38
  %65 = load i64, ptr %9, align 8, !tbaa !38
  %66 = load i64, ptr %10, align 8, !tbaa !38
  %67 = getelementptr inbounds [2 x i64], ptr %11, i64 0, i64 0
  call void @Sbc_Mult(i64 noundef %65, i64 noundef %66, ptr noundef %67)
  store i32 0, ptr %14, align 4, !tbaa !12
  br label %68

68:                                               ; preds = %143, %63
  %69 = load i32, ptr %14, align 4, !tbaa !12
  %70 = icmp slt i32 %69, 64
  br i1 %70, label %71, label %146

71:                                               ; preds = %68
  %72 = load i64, ptr %9, align 8, !tbaa !38
  %73 = load i32, ptr %14, align 4, !tbaa !12
  %74 = zext i32 %73 to i64
  %75 = lshr i64 %72, %74
  %76 = and i64 %75, 1
  %77 = icmp ne i64 %76, 0
  br i1 %77, label %78, label %88

78:                                               ; preds = %71
  %79 = load i32, ptr %13, align 4, !tbaa !12
  %80 = zext i32 %79 to i64
  %81 = shl i64 1, %80
  %82 = load ptr, ptr %5, align 8, !tbaa !36
  %83 = load i32, ptr %14, align 4, !tbaa !12
  %84 = sext i32 %83 to i64
  %85 = getelementptr inbounds i64, ptr %82, i64 %84
  %86 = load i64, ptr %85, align 8, !tbaa !38
  %87 = or i64 %86, %81
  store i64 %87, ptr %85, align 8, !tbaa !38
  br label %88

88:                                               ; preds = %78, %71
  %89 = load i64, ptr %10, align 8, !tbaa !38
  %90 = load i32, ptr %14, align 4, !tbaa !12
  %91 = zext i32 %90 to i64
  %92 = lshr i64 %89, %91
  %93 = and i64 %92, 1
  %94 = icmp ne i64 %93, 0
  br i1 %94, label %95, label %105

95:                                               ; preds = %88
  %96 = load i32, ptr %13, align 4, !tbaa !12
  %97 = zext i32 %96 to i64
  %98 = shl i64 1, %97
  %99 = load ptr, ptr %6, align 8, !tbaa !36
  %100 = load i32, ptr %14, align 4, !tbaa !12
  %101 = sext i32 %100 to i64
  %102 = getelementptr inbounds i64, ptr %99, i64 %101
  %103 = load i64, ptr %102, align 8, !tbaa !38
  %104 = or i64 %103, %98
  store i64 %104, ptr %102, align 8, !tbaa !38
  br label %105

105:                                              ; preds = %95, %88
  %106 = getelementptr inbounds [2 x i64], ptr %11, i64 0, i64 0
  %107 = load i64, ptr %106, align 16, !tbaa !38
  %108 = load i32, ptr %14, align 4, !tbaa !12
  %109 = zext i32 %108 to i64
  %110 = lshr i64 %107, %109
  %111 = and i64 %110, 1
  %112 = icmp ne i64 %111, 0
  br i1 %112, label %113, label %123

113:                                              ; preds = %105
  %114 = load i32, ptr %13, align 4, !tbaa !12
  %115 = zext i32 %114 to i64
  %116 = shl i64 1, %115
  %117 = load ptr, ptr %7, align 8, !tbaa !36
  %118 = load i32, ptr %14, align 4, !tbaa !12
  %119 = sext i32 %118 to i64
  %120 = getelementptr inbounds i64, ptr %117, i64 %119
  %121 = load i64, ptr %120, align 8, !tbaa !38
  %122 = or i64 %121, %116
  store i64 %122, ptr %120, align 8, !tbaa !38
  br label %123

123:                                              ; preds = %113, %105
  %124 = getelementptr inbounds [2 x i64], ptr %11, i64 0, i64 1
  %125 = load i64, ptr %124, align 8, !tbaa !38
  %126 = load i32, ptr %14, align 4, !tbaa !12
  %127 = zext i32 %126 to i64
  %128 = lshr i64 %125, %127
  %129 = and i64 %128, 1
  %130 = icmp ne i64 %129, 0
  br i1 %130, label %131, label %142

131:                                              ; preds = %123
  %132 = load i32, ptr %13, align 4, !tbaa !12
  %133 = zext i32 %132 to i64
  %134 = shl i64 1, %133
  %135 = load ptr, ptr %7, align 8, !tbaa !36
  %136 = load i32, ptr %14, align 4, !tbaa !12
  %137 = add nsw i32 %136, 64
  %138 = sext i32 %137 to i64
  %139 = getelementptr inbounds i64, ptr %135, i64 %138
  %140 = load i64, ptr %139, align 8, !tbaa !38
  %141 = or i64 %140, %134
  store i64 %141, ptr %139, align 8, !tbaa !38
  br label %142

142:                                              ; preds = %131, %123
  br label %143

143:                                              ; preds = %142
  %144 = load i32, ptr %14, align 4, !tbaa !12
  %145 = add nsw i32 %144, 1
  store i32 %145, ptr %14, align 4, !tbaa !12
  br label %68, !llvm.loop !93

146:                                              ; preds = %68
  br label %147

147:                                              ; preds = %146
  %148 = load i32, ptr %13, align 4, !tbaa !12
  %149 = add nsw i32 %148, 1
  store i32 %149, ptr %13, align 4, !tbaa !12
  br label %43, !llvm.loop !94

150:                                              ; preds = %43
  call void @llvm.lifetime.end.p0(i64 4, ptr %14) #11
  call void @llvm.lifetime.end.p0(i64 4, ptr %13) #11
  call void @llvm.lifetime.end.p0(i64 8, ptr %12) #11
  call void @llvm.lifetime.end.p0(i64 16, ptr %11) #11
  call void @llvm.lifetime.end.p0(i64 8, ptr %10) #11
  call void @llvm.lifetime.end.p0(i64 8, ptr %9) #11
  ret void
}